target datalayout = "e-m:e-p270:32:32-p271:32:32-p272:64:64-i64:64-i128:128-f80:128-n8:16:32:64-S128"
target triple = "x86_64-pc-linux-gnu"

@.str = private unnamed_addr constant [25 x i8] c"Can't send to clamd: %s\0A\00", align 1

; Function Attrs: nounwind uwtable
define i32 @sendln(i32 noundef %0, ptr noundef %1, i32 noundef %2) #0 {
  %4 = alloca i32, align 4
  %5 = alloca i32, align 4
  %6 = alloca ptr, align 8
  %7 = alloca i32, align 4
  %8 = alloca i32, align 4
  store i32 %0, ptr %5, align 4
  store ptr %1, ptr %6, align 8
  store i32 %2, ptr %7, align 4
  br label %9

9:                                                ; preds = %34, %28, %3
  %10 = load i32, ptr %7, align 4
  %11 = icmp ne i32 %10, 0
  br i1 %11, label %12, label %42

12:                                               ; preds = %9
  %13 = load i32, ptr %5, align 4
  %14 = load ptr, ptr %6, align 8
  %15 = load i32, ptr %7, align 4
  %16 = zext i32 %15 to i64
  %17 = call i64 @send(i32 noundef %13, ptr noundef %14, i64 noundef %16, i32 noundef 0)
  %18 = trunc i64 %17 to i32
  store i32 %18, ptr %8, align 4
  %19 = load i32, ptr %8, align 4
  %20 = icmp sle i32 %19, 0
  br i1 %20, label %21, label %34

21:                                               ; preds = %12
  %22 = load i32, ptr %8, align 4
  %23 = icmp ne i32 %22, 0
  br i1 %23, label %24, label %29

24:                                               ; preds = %21
  %25 = call ptr @__errno_location() #8
  %26 = load i32, ptr %25, align 4
  %27 = icmp eq i32 %26, 4
  br i1 %27, label %28, label %29

28:                                               ; preds = %24
  br label %9

29:                                               ; preds = %24, %21
  %30 = call ptr @__errno_location() #8
  %31 = load i32, ptr %30, align 4
  %32 = call ptr @strerror(i32 noundef %31) #9
  %33 = call i32 (i32, ptr, ...) @logg(i32 noundef 5, ptr noundef @.str, ptr noundef %32)
  store i32 1, ptr %4, align 4
  br label %43

34:                                               ; preds = %12
  %35 = load i32, ptr %8, align 4
  %36 = load ptr, ptr %6, align 8
  %37 = sext i32 %35 to i64
  %38 = getelementptr inbounds i8, ptr %36, i64 %37
  store ptr %38, ptr %6, align 8
  %39 = load i32, ptr %8, align 4
  %40 = load i32, ptr %7, align 4
  %41 = sub i32 %40, %39
  store i32 %41, ptr %7, align 4
  br label %9

42:                                               ; preds = %9
  store i32 0, ptr %4, align 4
  br label %43

43:                                               ; preds = %42, %29
  %44 = load i32, ptr %4, align 4
  ret i32 %44
}