; Function Attrs: nounwind uwtable
define noundef i32 @sendln(i32 noundef %0, ptr noundef %1, i32 noundef %2) local_unnamed_addr #0 {
  %.not17 = icmp eq i32 %2, 0
  br i1 %.not17, label %.loopexit, label %.outer.split

.outer.split:                                     ; preds = %3, %.outer
  %.010.ph19 = phi i32 [ %18, %.outer ], [ %2, %3 ]
  %.011.ph18 = phi ptr [ %17, %.outer ], [ %1, %3 ]
  %4 = zext i32 %.010.ph19 to i64
  br label %5

5:                                                ; preds = %.outer.split, %10
  %6 = tail call i64 @send(i32 noundef %0, ptr noundef %.011.ph18, i64 noundef %4, i32 noundef 0) #14
  %7 = trunc i64 %6 to i32
  %8 = icmp slt i32 %7, 1
  br i1 %8, label %9, label %.outer

9:                                                ; preds = %5
  %.not13 = icmp eq i32 %7, 0
  %.pre = tail call ptr @__errno_location() #15
  br i1 %.not13, label %split, label %10

10:                                               ; preds = %9
  %11 = load i32, ptr %.pre, align 4
  %12 = icmp eq i32 %11, 4
  br i1 %12, label %5, label %split

split:                                            ; preds = %10, %9
  %13 = load i32, ptr %.pre, align 4
  %14 = tail call ptr @strerror(i32 noundef %13) #14
  %15 = tail call i32 (i32, ptr, ...) @logg(i32 noundef 5, ptr noundef nonnull @.str, ptr noundef %14) #14
  br label %.loopexit

.outer:                                           ; preds = %5
  %16 = and i64 %6, 2147483647
  %17 = getelementptr inbounds i8, ptr %.011.ph18, i64 %16
  %18 = sub i32 %.010.ph19, %7
  %.not = icmp eq i32 %18, 0
  br i1 %.not, label %.loopexit, label %.outer.split

.loopexit:                                        ; preds = %.outer, %3, %split
  %.0 = phi i32 [ 1, %split ], [ 0, %3 ], [ 0, %.outer ]
  ret i32 %.0
}